target datalayout = "e-m:e-p270:32:32-p271:32:32-p272:64:64-i64:64-i128:128-f80:128-n8:16:32:64-S128"
target triple = "x86_64-pc-linux-gnu"

%struct.strvec = type { ptr, i64, i64 }
%struct.child_process = type { %struct.strvec, %struct.strvec, i32, i32, i64, ptr, ptr, i32, i32, i32, ptr, i16, ptr }

@.str.75 = private unnamed_addr constant [1 x i8] zeroinitializer, align 1
@git_gettext_enabled = external global i32, align 4
@.str.115 = private unnamed_addr constant [7 x i8] c"hourly\00", align 1
@.str.116 = private unnamed_addr constant [6 x i8] c"daily\00", align 1
@.str.117 = private unnamed_addr constant [7 x i8] c"weekly\00", align 1
@.str.118 = private unnamed_addr constant [13 x i8] c"builtin/gc.c\00", align 1
@.str.138 = private unnamed_addr constant [2 x i8] c"w\00", align 1
@.str.180 = private unnamed_addr constant [10 x i8] c"systemctl\00", align 1
@.str.184 = private unnamed_addr constant [7 x i8] c"--user\00", align 1
@.str.209 = private unnamed_addr constant [22 x i8] c"git-maintenance@%s.%s\00", align 1
@.str.211 = private unnamed_addr constant [38 x i8] c"failed to create directories for '%s'\00", align 1
@.str.213 = private unnamed_addr constant [24 x i8] c"failed to write to '%s'\00", align 1
@.str.214 = private unnamed_addr constant [21 x i8] c"failed to flush '%s'\00", align 1
@.str.215 = private unnamed_addr constant [13 x i8] c"systemd/user\00", align 1
@.str.216 = private unnamed_addr constant [7 x i8] c"enable\00", align 1
@.str.217 = private unnamed_addr constant [8 x i8] c"disable\00", align 1
@.str.218 = private unnamed_addr constant [6 x i8] c"--now\00", align 1
@.str.219 = private unnamed_addr constant [6 x i8] c"timer\00", align 1
@.str.220 = private unnamed_addr constant [26 x i8] c"failed to start systemctl\00", align 1
@.str.221 = private unnamed_addr constant [24 x i8] c"failed to run systemctl\00", align 1
@.str.222 = private unnamed_addr constant [20 x i8] c"invalid schedule %d\00", align 1
@.str.223 = private unnamed_addr constant [20 x i8] c"*-*-* 1..23:%02d:00\00", align 1
@.str.224 = private unnamed_addr constant [25 x i8] c"Tue..Sun *-*-* 0:%02d:00\00", align 1
@.str.225 = private unnamed_addr constant [14 x i8] c"Mon 0:%02d:00\00", align 1
@.str.226 = private unnamed_addr constant [28 x i8] c"Unhandled schedule_priority\00", align 1

; Function Attrs: nounwind uwtable
define internal ptr @xdg_config_home_systemd(ptr noundef %0) #0 {
  %2 = alloca ptr, align 8
  store ptr %0, ptr %2, align 8, !tbaa !11
  %3 = load ptr, ptr %2, align 8, !tbaa !11
  %4 = call ptr @xdg_config_home_for(ptr noundef @.str.215, ptr noundef %3)
  ret ptr %4
}

; Function Attrs: inlinehint nounwind uwtable
define internal i32 @const_error() #6 {
  ret i32 -1
}

; Function Attrs: inlinehint nounwind uwtable
define internal ptr @_(ptr noundef %0) #6 {
  %2 = alloca ptr, align 8
  %3 = alloca ptr, align 8
  store ptr %0, ptr %3, align 8, !tbaa !11
  %4 = load ptr, ptr %3, align 8, !tbaa !11
  %5 = load i8, ptr %4, align 1, !tbaa !93
  %6 = icmp ne i8 %5, 0
  br i1 %6, label %8, label %7

7:                                                ; preds = %1
  store ptr @.str.75, ptr %2, align 8
  br label %16

8:                                                ; preds = %1
  %9 = load i32, ptr @git_gettext_enabled, align 4, !tbaa !4
  %10 = icmp ne i32 %9, 0
  br i1 %10, label %13, label %11

11:                                               ; preds = %8
  %12 = load ptr, ptr %3, align 8, !tbaa !11
  store ptr %12, ptr %2, align 8
  br label %16

13:                                               ; preds = %8
  %14 = load ptr, ptr %3, align 8, !tbaa !11
  %15 = call ptr @dcgettext(ptr noundef null, ptr noundef %14, i32 noundef 5) #11
  store ptr %15, ptr %2, align 8
  br label %16

16:                                               ; preds = %13, %11, %7
  %17 = load ptr, ptr %2, align 8
  ret ptr %17
}

; Function Attrs: nounwind uwtable
define internal i32 @systemd_timer_write_timer_file(i32 noundef %0, i32 noundef %1) #0 {
  %3 = alloca i32, align 4
  %4 = alloca i32, align 4
  %5 = alloca i32, align 4
  %6 = alloca ptr, align 8
  %7 = alloca ptr, align 8
  %8 = alloca ptr, align 8
  %9 = alloca ptr, align 8
  %10 = alloca ptr, align 8
  %11 = alloca ptr, align 8
  store i32 %0, ptr %3, align 4, !tbaa !4
  store i32 %1, ptr %4, align 4, !tbaa !4
  call void @llvm.lifetime.start.p0(i64 4, ptr %5) #11
  store i32 -1, ptr %5, align 4, !tbaa !4
  call void @llvm.lifetime.start.p0(i64 8, ptr %6) #11
  call void @llvm.lifetime.start.p0(i64 8, ptr %7) #11
  call void @llvm.lifetime.start.p0(i64 8, ptr %8) #11
  call void @llvm.lifetime.start.p0(i64 8, ptr %9) #11
  store ptr null, ptr %9, align 8, !tbaa !11
  call void @llvm.lifetime.start.p0(i64 8, ptr %10) #11
  %12 = load i32, ptr %3, align 4, !tbaa !4
  %13 = call ptr @get_frequency(i32 noundef %12)
  store ptr %13, ptr %10, align 8, !tbaa !11
  call void @llvm.lifetime.start.p0(i64 8, ptr %11) #11
  %14 = load ptr, ptr %10, align 8, !tbaa !11
  %15 = call ptr (ptr, ...) @xstrfmt(ptr noundef @.str.209, ptr noundef %14, ptr noundef @.str.219)
  store ptr %15, ptr %11, align 8, !tbaa !11
  %16 = load ptr, ptr %11, align 8, !tbaa !11
  %17 = call ptr @xdg_config_home_systemd(ptr noundef %16)
  store ptr %17, ptr %6, align 8, !tbaa !11
  %18 = load ptr, ptr %6, align 8, !tbaa !11
  %19 = call i32 @safe_create_leading_directories(ptr noundef %18)
  %20 = icmp ne i32 %19, 0
  br i1 %20, label %21, label %26

21:                                               ; preds = %2
  %22 = call ptr @_(ptr noundef @.str.211)
  %23 = load ptr, ptr %6, align 8, !tbaa !11
  %24 = call i32 (ptr, ...) @error(ptr noundef %22, ptr noundef %23)
  %25 = call i32 @const_error()
  br label %67

26:                                               ; preds = %2
  %27 = load ptr, ptr %6, align 8, !tbaa !11
  %28 = call ptr @fopen_or_warn(ptr noundef %27, ptr noundef @.str.138)
  store ptr %28, ptr %7, align 8, !tbaa !50
  %29 = load ptr, ptr %7, align 8, !tbaa !50
  %30 = icmp ne ptr %29, null
  br i1 %30, label %32, label %31

31:                                               ; preds = %26
  br label %67

32:                                               ; preds = %26
  %33 = load i32, ptr %3, align 4, !tbaa !4
  switch i32 %33, label %43 [
    i32 3, label %34
    i32 2, label %37
    i32 1, label %40
  ]

34:                                               ; preds = %32
  %35 = load i32, ptr %4, align 4, !tbaa !4
  %36 = call ptr (ptr, ...) @xstrfmt(ptr noundef @.str.223, i32 noundef %35)
  store ptr %36, ptr %9, align 8, !tbaa !11
  br label %44

37:                                               ; preds = %32
  %38 = load i32, ptr %4, align 4, !tbaa !4
  %39 = call ptr (ptr, ...) @xstrfmt(ptr noundef @.str.224, i32 noundef %38)
  store ptr %39, ptr %9, align 8, !tbaa !11
  br label %44

40:                                               ; preds = %32
  %41 = load i32, ptr %4, align 4, !tbaa !4
  %42 = call ptr (ptr, ...) @xstrfmt(ptr noundef @.str.225, i32 noundef %41)
  store ptr %42, ptr %9, align 8, !tbaa !11
  br label %44

43:                                               ; preds = %32
  call void (ptr, i32, ptr, ...) @BUG_fl(ptr noundef @.str.118, i32 noundef 2576, ptr noundef @.str.226) #12
  unreachable

44:                                               ; preds = %40, %37, %34
  store ptr @.str.227, ptr %8, align 8, !tbaa !11
  %45 = load ptr, ptr %7, align 8, !tbaa !50
  %46 = load ptr, ptr %8, align 8, !tbaa !11
  %47 = load ptr, ptr %9, align 8, !tbaa !11
  %48 = call i32 (ptr, ptr, ...) @fprintf(ptr noundef %45, ptr noundef %46, ptr noundef %47) #11
  %49 = icmp slt i32 %48, 0
  br i1 %49, label %50, label %57

50:                                               ; preds = %44
  %51 = call ptr @_(ptr noundef @.str.213)
  %52 = load ptr, ptr %6, align 8, !tbaa !11
  %53 = call i32 (ptr, ...) @error(ptr noundef %51, ptr noundef %52)
  %54 = call i32 @const_error()
  %55 = load ptr, ptr %7, align 8, !tbaa !50
  %56 = call i32 @fclose(ptr noundef %55)
  br label %67

57:                                               ; preds = %44
  %58 = load ptr, ptr %7, align 8, !tbaa !50
  %59 = call i32 @fclose(ptr noundef %58)
  %60 = icmp eq i32 %59, -1
  br i1 %60, label %61, label %66

61:                                               ; preds = %57
  %62 = call ptr @_(ptr noundef @.str.214)
  %63 = load ptr, ptr %6, align 8, !tbaa !11
  %64 = call i32 (ptr, ...) @error_errno(ptr noundef %62, ptr noundef %63)
  %65 = call i32 @const_error()
  br label %67

66:                                               ; preds = %57
  store i32 0, ptr %5, align 4, !tbaa !4
  br label %67

67:                                               ; preds = %66, %61, %50, %31, %21
  %68 = load ptr, ptr %9, align 8, !tbaa !11
  call void @free(ptr noundef %68) #11
  %69 = load ptr, ptr %11, align 8, !tbaa !11
  call void @free(ptr noundef %69) #11
  %70 = load ptr, ptr %6, align 8, !tbaa !11
  call void @free(ptr noundef %70) #11
  %71 = load i32, ptr %5, align 4, !tbaa !4
  call void @llvm.lifetime.end.p0(i64 8, ptr %11) #11
  call void @llvm.lifetime.end.p0(i64 8, ptr %10) #11
  call void @llvm.lifetime.end.p0(i64 8, ptr %9) #11
  call void @llvm.lifetime.end.p0(i64 8, ptr %8) #11
  call void @llvm.lifetime.end.p0(i64 8, ptr %7) #11
  call void @llvm.lifetime.end.p0(i64 8, ptr %6) #11
  call void @llvm.lifetime.end.p0(i64 4, ptr %5) #11
  ret i32 %71
}

; Function Attrs: nounwind uwtable
define internal ptr @get_frequency(i32 noundef %0) #0 {
  %2 = alloca ptr, align 8
  %3 = alloca i32, align 4
  store i32 %0, ptr %3, align 4, !tbaa !4
  %4 = load i32, ptr %3, align 4, !tbaa !4
  switch i32 %4, label %8 [
    i32 3, label %5
    i32 2, label %6
    i32 1, label %7
  ]

5:                                                ; preds = %1
  store ptr @.str.115, ptr %2, align 8
  br label %10

6:                                                ; preds = %1
  store ptr @.str.116, ptr %2, align 8
  br label %10

7:                                                ; preds = %1
  store ptr @.str.117, ptr %2, align 8
  br label %10

8:                                                ; preds = %1
  %9 = load i32, ptr %3, align 4, !tbaa !4
  call void (ptr, i32, ptr, ...) @BUG_fl(ptr noundef @.str.118, i32 noundef 1783, ptr noundef @.str.222, i32 noundef %9) #12
  unreachable

10:                                               ; preds = %7, %6, %5
  %11 = load ptr, ptr %2, align 8
  ret ptr %11
}

; Function Attrs: nounwind uwtable
define internal i32 @systemd_timer_enable_unit(i32 noundef %0, i32 noundef %1, i32 noundef %2) #0 {
  %4 = alloca i32, align 4
  %5 = alloca i32, align 4
  %6 = alloca i32, align 4
  %7 = alloca ptr, align 8
  %8 = alloca %struct.child_process, align 8
  %9 = alloca ptr, align 8
  %10 = alloca i32, align 4
  store i32 %0, ptr %4, align 4, !tbaa !4
  store i32 %1, ptr %5, align 4, !tbaa !4
  store i32 %2, ptr %6, align 4, !tbaa !4
  call void @llvm.lifetime.start.p0(i64 8, ptr %7) #11
  store ptr null, ptr %7, align 8, !tbaa !11
  call void @llvm.lifetime.start.p0(i64 120, ptr %8) #11
  call void @llvm.memcpy.p0.p0.i64(ptr align 8 %8, ptr align 8 @__const.systemd_timer_enable_unit.child, i64 120, i1 false)
  call void @llvm.lifetime.start.p0(i64 8, ptr %9) #11
  %11 = load i32, ptr %5, align 4, !tbaa !4
  %12 = call ptr @get_frequency(i32 noundef %11)
  store ptr %12, ptr %9, align 8, !tbaa !11
  call void @llvm.lifetime.start.p0(i64 4, ptr %10) #11
  %13 = load i32, ptr %4, align 4, !tbaa !4
  %14 = icmp ne i32 %13, 0
  br i1 %14, label %20, label %15

15:                                               ; preds = %3
  %16 = getelementptr inbounds nuw %struct.child_process, ptr %8, i32 0, i32 11
  %17 = load i16, ptr %16, align 8
  %18 = and i16 %17, -5
  %19 = or i16 %18, 4
  store i16 %19, ptr %16, align 8
  br label %27

20:                                               ; preds = %3
  %21 = load i32, ptr %5, align 4, !tbaa !4
  %22 = load i32, ptr %6, align 4, !tbaa !4
  %23 = call i32 @systemd_timer_write_timer_file(i32 noundef %21, i32 noundef %22)
  %24 = icmp ne i32 %23, 0
  br i1 %24, label %25, label %26

25:                                               ; preds = %20
  store i32 -1, ptr %10, align 4, !tbaa !4
  br label %56

26:                                               ; preds = %20
  br label %27

27:                                               ; preds = %26, %15
  %28 = call i32 @get_schedule_cmd(ptr noundef @.str.180, ptr noundef null, ptr noundef %7)
  %29 = getelementptr inbounds nuw %struct.child_process, ptr %8, i32 0, i32 0
  %30 = load ptr, ptr %7, align 8, !tbaa !11
  call void @strvec_split(ptr noundef %29, ptr noundef %30)
  %31 = getelementptr inbounds nuw %struct.child_process, ptr %8, i32 0, i32 0
  %32 = load i32, ptr %4, align 4, !tbaa !4
  %33 = icmp ne i32 %32, 0
  %34 = select i1 %33, ptr @.str.216, ptr @.str.217
  call void (ptr, ...) @strvec_pushl(ptr noundef %31, ptr noundef @.str.184, ptr noundef %34, ptr noundef @.str.218, ptr noundef null)
  %35 = getelementptr inbounds nuw %struct.child_process, ptr %8, i32 0, i32 0
  %36 = load ptr, ptr %9, align 8, !tbaa !11
  %37 = call ptr (ptr, ptr, ...) @strvec_pushf(ptr noundef %35, ptr noundef @.str.209, ptr noundef %36, ptr noundef @.str.219)
  %38 = call i32 @start_command(ptr noundef %8)
  %39 = icmp ne i32 %38, 0
  br i1 %39, label %40, label %44

40:                                               ; preds = %27
  %41 = call ptr @_(ptr noundef @.str.220)
  %42 = call i32 (ptr, ...) @error(ptr noundef %41)
  %43 = call i32 @const_error()
  store i32 %43, ptr %10, align 4, !tbaa !4
  br label %56

44:                                               ; preds = %27
  %45 = call i32 @finish_command(ptr noundef %8)
  %46 = icmp ne i32 %45, 0
  br i1 %46, label %47, label %55

47:                                               ; preds = %44
  %48 = load i32, ptr %4, align 4, !tbaa !4
  %49 = icmp ne i32 %48, 0
  br i1 %49, label %50, label %54

50:                                               ; preds = %47
  %51 = call ptr @_(ptr noundef @.str.221)
  %52 = call i32 (ptr, ...) @error(ptr noundef %51)
  %53 = call i32 @const_error()
  store i32 %53, ptr %10, align 4, !tbaa !4
  br label %56

54:                                               ; preds = %47
  br label %55

55:                                               ; preds = %54, %44
  store i32 0, ptr %10, align 4, !tbaa !4
  br label %56

56:                                               ; preds = %55, %50, %40, %25
  %57 = load ptr, ptr %7, align 8, !tbaa !11
  call void @free(ptr noundef %57) #11
  %58 = load i32, ptr %10, align 4, !tbaa !4
  call void @llvm.lifetime.end.p0(i64 4, ptr %10) #11
  call void @llvm.lifetime.end.p0(i64 8, ptr %9) #11
  call void @llvm.lifetime.end.p0(i64 120, ptr %8) #11
  call void @llvm.lifetime.end.p0(i64 8, ptr %7) #11
  ret i32 %58
}