; Function Attrs: nounwind uwtable
define internal fastcc range(i32 -1, 1) i32 @systemd_timer_enable_unit(i32 noundef range(i32 0, 2) %0, i32 noundef range(i32 1, 4) %1, i32 noundef range(i32 0, 60) %2) unnamed_addr #0 {
switch.lookup:
  %3 = alloca ptr, align 8
  %4 = alloca %struct.child_process, align 8
  call void @llvm.lifetime.start.p0(i64 8, ptr nonnull %3) #21
  store ptr null, ptr %3, align 8, !tbaa !26
  call void @llvm.lifetime.start.p0(i64 120, ptr nonnull %4) #21
  call void @llvm.memcpy.p0.p0.i64(ptr noundef nonnull align 8 dereferenceable(120) %4, ptr noundef nonnull align 8 dereferenceable(120) @__const.schtasks_remove_task.child, i64 120, i1 false)
  %switch.tableidx = add nsw i32 %1, -1
  %5 = sext i32 %switch.tableidx to i64
  %switch.gep = getelementptr inbounds [3 x ptr], ptr @switch.table.schtasks_schedule_task, i64 0, i64 %5
  %switch.load = load ptr, ptr %switch.gep, align 8
  %6 = icmp ne i32 %0, 0
  br i1 %6, label %switch.lookup14, label %7

7:                                                ; preds = %switch.lookup
  %8 = getelementptr inbounds nuw i8, ptr %4, i64 104
  store i16 4, ptr %8, align 8
  br label %38

switch.lookup14:                                  ; preds = %switch.lookup
  %switch.tableidx15 = add nsw i32 %1, -1
  %9 = sext i32 %switch.tableidx15 to i64
  %switch.gep16 = getelementptr inbounds [3 x ptr], ptr @switch.table.schtasks_schedule_task, i64 0, i64 %9
  %switch.load17 = load ptr, ptr %switch.gep16, align 8
  %10 = tail call ptr (ptr, ...) @xstrfmt(ptr noundef nonnull @.str.209, ptr noundef nonnull %switch.load17, ptr noundef nonnull @.str.219) #21
  %11 = tail call ptr @xdg_config_home_for(ptr noundef nonnull @.str.215, ptr noundef %10) #21
  %12 = tail call i32 @safe_create_leading_directories(ptr noundef %11) #21
  %.not.i = icmp eq i32 %12, 0
  br i1 %.not.i, label %18, label %13

13:                                               ; preds = %switch.lookup14
  %14 = load i32, ptr @git_gettext_enabled, align 4, !tbaa !4
  %.not4.i.i = icmp eq i32 %14, 0
  br i1 %.not4.i.i, label %_.exit.i, label %15

15:                                               ; preds = %13
  %16 = tail call ptr @dcgettext(ptr noundef null, ptr noundef nonnull @.str.211, i32 noundef 5) #21
  br label %_.exit.i

_.exit.i:                                         ; preds = %15, %13
  %.0.i24.i = phi ptr [ %16, %15 ], [ @.str.211, %13 ]
  %17 = tail call i32 (ptr, ...) @error(ptr noundef %.0.i24.i, ptr noundef %11) #21
  br label %.critedge

18:                                               ; preds = %switch.lookup14
  %19 = tail call ptr @fopen_or_warn(ptr noundef %11, ptr noundef nonnull @.str.138) #21
  %.not23.i = icmp eq ptr %19, null
  br i1 %.not23.i, label %.critedge, label %switch.lookup18

switch.lookup18:                                  ; preds = %18
  %switch.tableidx19 = add nsw i32 %1, -1
  %20 = sext i32 %switch.tableidx19 to i64
  %switch.gep20 = getelementptr inbounds [3 x ptr], ptr @switch.table.systemd_timer_enable_unit.12, i64 0, i64 %20
  %switch.load21 = load ptr, ptr %switch.gep20, align 8
  %21 = tail call ptr (ptr, ...) @xstrfmt(ptr noundef nonnull %switch.load21, i32 noundef range(i32 0, 60) %2) #21
  %22 = tail call i32 (ptr, ptr, ...) @fprintf(ptr noundef nonnull %19, ptr noundef nonnull @.str.227, ptr noundef %21) #21
  %23 = icmp slt i32 %22, 0
  br i1 %23, label %24, label %30

24:                                               ; preds = %switch.lookup18
  %25 = load i32, ptr @git_gettext_enabled, align 4, !tbaa !4
  %.not4.i25.i = icmp eq i32 %25, 0
  br i1 %.not4.i25.i, label %_.exit27.i, label %26

26:                                               ; preds = %24
  %27 = tail call ptr @dcgettext(ptr noundef null, ptr noundef nonnull @.str.213, i32 noundef 5) #21
  br label %_.exit27.i

_.exit27.i:                                       ; preds = %26, %24
  %.0.i26.i = phi ptr [ %27, %26 ], [ @.str.213, %24 ]
  %28 = tail call i32 (ptr, ...) @error(ptr noundef %.0.i26.i, ptr noundef %11) #21
  %29 = tail call i32 @fclose(ptr noundef nonnull %19)
  br label %.critedge

30:                                               ; preds = %switch.lookup18
  %31 = tail call i32 @fclose(ptr noundef nonnull %19)
  %32 = icmp eq i32 %31, -1
  br i1 %32, label %33, label %systemd_timer_write_timer_file.exit

33:                                               ; preds = %30
  %34 = load i32, ptr @git_gettext_enabled, align 4, !tbaa !4
  %.not4.i28.i = icmp eq i32 %34, 0
  br i1 %.not4.i28.i, label %_.exit30.i, label %35

35:                                               ; preds = %33
  %36 = tail call ptr @dcgettext(ptr noundef null, ptr noundef nonnull @.str.214, i32 noundef 5) #21
  br label %_.exit30.i

_.exit30.i:                                       ; preds = %35, %33
  %.0.i29.i = phi ptr [ %36, %35 ], [ @.str.214, %33 ]
  %37 = tail call i32 (ptr, ...) @error_errno(ptr noundef %.0.i29.i, ptr noundef %11) #21
  br label %.critedge

systemd_timer_write_timer_file.exit:              ; preds = %30
  tail call void @free(ptr noundef %21) #21
  tail call void @free(ptr noundef %10) #21
  tail call void @free(ptr noundef %11) #21
  br label %38

38:                                               ; preds = %systemd_timer_write_timer_file.exit, %7
  %39 = phi ptr [ @.str.216, %systemd_timer_write_timer_file.exit ], [ @.str.217, %7 ]
  %40 = call fastcc i32 @get_schedule_cmd(ptr noundef nonnull @.str.180, ptr noundef null, ptr noundef nonnull %3)
  %41 = load ptr, ptr %3, align 8, !tbaa !26
  call void @strvec_split(ptr noundef nonnull %4, ptr noundef %41) #21
  call void (ptr, ...) @strvec_pushl(ptr noundef nonnull %4, ptr noundef nonnull @.str.184, ptr noundef nonnull %39, ptr noundef nonnull @.str.218, ptr noundef null) #21
  %42 = call ptr (ptr, ptr, ...) @strvec_pushf(ptr noundef nonnull %4, ptr noundef nonnull @.str.209, ptr noundef nonnull %switch.load, ptr noundef nonnull @.str.219) #21
  %43 = call i32 @start_command(ptr noundef nonnull %4) #21
  %.not8 = icmp eq i32 %43, 0
  br i1 %.not8, label %49, label %44

44:                                               ; preds = %38
  %45 = load i32, ptr @git_gettext_enabled, align 4, !tbaa !4
  %.not4.i = icmp eq i32 %45, 0
  br i1 %.not4.i, label %_.exit, label %46

46:                                               ; preds = %44
  %47 = call ptr @dcgettext(ptr noundef null, ptr noundef nonnull @.str.220, i32 noundef 5) #21
  br label %_.exit

_.exit:                                           ; preds = %44, %46
  %.0.i10 = phi ptr [ %47, %46 ], [ @.str.220, %44 ]
  %48 = call i32 (ptr, ...) @error(ptr noundef %.0.i10) #21
  br label %57

49:                                               ; preds = %38
  %50 = call i32 @finish_command(ptr noundef nonnull %4) #21
  %51 = icmp ne i32 %50, 0
  %or.cond = and i1 %6, %51
  br i1 %or.cond, label %52, label %57

52:                                               ; preds = %49
  %53 = load i32, ptr @git_gettext_enabled, align 4, !tbaa !4
  %.not4.i11 = icmp eq i32 %53, 0
  br i1 %.not4.i11, label %_.exit13, label %54

54:                                               ; preds = %52
  %55 = call ptr @dcgettext(ptr noundef null, ptr noundef nonnull @.str.221, i32 noundef 5) #21
  br label %_.exit13

_.exit13:                                         ; preds = %52, %54
  %.0.i12 = phi ptr [ %55, %54 ], [ @.str.221, %52 ]
  %56 = call i32 (ptr, ...) @error(ptr noundef %.0.i12) #21
  br label %57

.critedge:                                        ; preds = %18, %_.exit30.i, %_.exit27.i, %_.exit.i
  %.021.i.ph = phi ptr [ null, %18 ], [ %21, %_.exit30.i ], [ %21, %_.exit27.i ], [ null, %_.exit.i ]
  tail call void @free(ptr noundef %.021.i.ph) #21
  tail call void @free(ptr noundef %10) #21
  tail call void @free(ptr noundef %11) #21
  br label %57

57:                                               ; preds = %.critedge, %49, %_.exit13, %_.exit
  %.0 = phi i32 [ -1, %_.exit ], [ -1, %_.exit13 ], [ 0, %49 ], [ -1, %.critedge ]
  %58 = load ptr, ptr %3, align 8, !tbaa !26
  call void @free(ptr noundef %58) #21
  call void @llvm.lifetime.end.p0(i64 120, ptr nonnull %4) #21
  call void @llvm.lifetime.end.p0(i64 8, ptr nonnull %3) #21
  ret i32 %.0
}